; Function Attrs: mustprogress uwtable
define internal fastcc void @_ZN12_GLOBAL__N_124bv_size_reduction_tactic19update_signed_upperEP3appRK8rational(ptr noundef nonnull align 8 dereferenceable(169) %0, ptr noundef %1, ptr noundef nonnull align 8 dereferenceable(32) %2) unnamed_addr #3 align 2 {
  %4 = getelementptr inbounds nuw i8, ptr %0, i64 72
  %5 = tail call noundef nonnull align 8 dereferenceable(32) ptr @_ZN7obj_mapI3app8rationalE19insert_if_not_thereEPS0_RKS1_(ptr noundef nonnull align 8 dereferenceable(24) %4, ptr noundef %1, ptr noundef nonnull align 8 dereferenceable(32) %2)
  %6 = load ptr, ptr @_ZN8rational13g_mpq_managerE, align 8, !tbaa !34
  %7 = getelementptr inbounds nuw i8, ptr %2, i64 16
  %8 = getelementptr inbounds nuw i8, ptr %2, i64 20
  %9 = load i8, ptr %8, align 4
  %10 = and i8 %9, 1
  %11 = icmp eq i8 %10, 0
  %12 = load i32, ptr %7, align 8
  %13 = icmp eq i32 %12, 1
  %14 = select i1 %11, i1 %13, i1 false
  br i1 %14, label %15, label %38

15:                                               ; preds = %3
  %16 = getelementptr inbounds nuw i8, ptr %5, i64 16
  %17 = getelementptr inbounds nuw i8, ptr %5, i64 20
  %18 = load i8, ptr %17, align 4
  %19 = and i8 %18, 1
  %20 = icmp eq i8 %19, 0
  %21 = load i32, ptr %16, align 8
  %22 = icmp eq i32 %21, 1
  %23 = select i1 %20, i1 %22, i1 false
  br i1 %23, label %24, label %38

24:                                               ; preds = %15
  %25 = getelementptr inbounds nuw i8, ptr %2, i64 4
  %26 = load i8, ptr %25, align 4
  %27 = and i8 %26, 1
  %28 = icmp eq i8 %27, 0
  br i1 %28, label %29, label %_ZltRK8rationalS1_.exit

29:                                               ; preds = %24
  %30 = getelementptr inbounds nuw i8, ptr %5, i64 4
  %31 = load i8, ptr %30, align 4
  %32 = and i8 %31, 1
  %33 = icmp eq i8 %32, 0
  br i1 %33, label %34, label %_ZltRK8rationalS1_.exit

34:                                               ; preds = %29
  %35 = load i32, ptr %2, align 8, !tbaa !14
  %36 = load i32, ptr %5, align 8, !tbaa !14
  %37 = icmp slt i32 %35, %36
  br i1 %37, label %42, label %_ZN8rationalaSERKS_.exit

38:                                               ; preds = %15, %3
  %39 = tail call noundef zeroext i1 @_ZN11mpq_managerILb1EE6rat_ltERK3mpqS3_(ptr noundef nonnull align 8 dereferenceable(728) %6, ptr noundef nonnull align 8 dereferenceable(32) %2, ptr noundef nonnull align 8 dereferenceable(32) %5)
  br i1 %39, label %42, label %_ZN8rationalaSERKS_.exit

_ZltRK8rationalS1_.exit:                          ; preds = %24, %29
  %40 = tail call noundef i32 @_ZN11mpz_managerILb1EE11big_compareERK3mpzS3_(ptr noundef nonnull align 8 dereferenceable(728) %6, ptr noundef nonnull align 8 dereferenceable(32) %2, ptr noundef nonnull align 8 dereferenceable(32) %5)
  %41 = icmp slt i32 %40, 0
  br i1 %41, label %42, label %_ZN8rationalaSERKS_.exit

42:                                               ; preds = %34, %38, %_ZltRK8rationalS1_.exit
  %43 = load ptr, ptr @_ZN8rational13g_mpq_managerE, align 8, !tbaa !34
  %44 = getelementptr inbounds nuw i8, ptr %2, i64 4
  %45 = load i8, ptr %44, align 4
  %46 = and i8 %45, 1
  %47 = icmp eq i8 %46, 0
  br i1 %47, label %48, label %53

48:                                               ; preds = %42
  %49 = load i32, ptr %2, align 8, !tbaa !14
  store i32 %49, ptr %5, align 8, !tbaa !14
  %50 = getelementptr inbounds nuw i8, ptr %5, i64 4
  %51 = load i8, ptr %50, align 4
  %52 = and i8 %51, -2
  store i8 %52, ptr %50, align 4
  br label %_ZN11mpq_managerILb1EE3setER3mpzRKS1_.exit.i.i

53:                                               ; preds = %42
  tail call void @_ZN11mpz_managerILb1EE7big_setER3mpzRKS1_(ptr noundef nonnull align 8 dereferenceable(728) %43, ptr noundef nonnull align 8 dereferenceable(32) %5, ptr noundef nonnull align 8 dereferenceable(32) %2)
  br label %_ZN11mpq_managerILb1EE3setER3mpzRKS1_.exit.i.i

_ZN11mpq_managerILb1EE3setER3mpzRKS1_.exit.i.i:   ; preds = %53, %48
  %54 = getelementptr inbounds nuw i8, ptr %5, i64 16
  %55 = load i8, ptr %8, align 4
  %56 = and i8 %55, 1
  %57 = icmp eq i8 %56, 0
  br i1 %57, label %58, label %63

58:                                               ; preds = %_ZN11mpq_managerILb1EE3setER3mpzRKS1_.exit.i.i
  %59 = load i32, ptr %7, align 8, !tbaa !14
  store i32 %59, ptr %54, align 8, !tbaa !14
  %60 = getelementptr inbounds nuw i8, ptr %5, i64 20
  %61 = load i8, ptr %60, align 4
  %62 = and i8 %61, -2
  store i8 %62, ptr %60, align 4
  br label %_ZN8rationalaSERKS_.exit

63:                                               ; preds = %_ZN11mpq_managerILb1EE3setER3mpzRKS1_.exit.i.i
  tail call void @_ZN11mpz_managerILb1EE7big_setER3mpzRKS1_(ptr noundef nonnull align 8 dereferenceable(728) %43, ptr noundef nonnull align 8 dereferenceable(16) %54, ptr noundef nonnull align 8 dereferenceable(16) %7)
  br label %_ZN8rationalaSERKS_.exit

_ZN8rationalaSERKS_.exit:                         ; preds = %63, %58, %34, %38, %_ZltRK8rationalS1_.exit
  ret void
}